target datalayout = "e-m:e-p270:32:32-p271:32:32-p272:64:64-i64:64-i128:128-f80:128-n8:16:32:64-S128"
target triple = "x86_64-pc-linux-gnu"

@.str = private unnamed_addr constant [34 x i8] c"../openssl/crypto/bio/bio_sock2.c\00", align 1
@.str.2 = private unnamed_addr constant [21 x i8] c"calling setsockopt()\00", align 1
@__func__.BIO_listen = private unnamed_addr constant [11 x i8] c"BIO_listen\00", align 1
@.str.5 = private unnamed_addr constant [21 x i8] c"calling getsockopt()\00", align 1
@.str.6 = private unnamed_addr constant [17 x i8] c"calling listen()\00", align 1

; Function Attrs: nounwind uwtable
define i32 @BIO_listen(i32 noundef %0, ptr noundef %1, i32 noundef %2) #0 {
  %4 = alloca i32, align 4
  %5 = alloca i32, align 4
  %6 = alloca ptr, align 8
  %7 = alloca i32, align 4
  %8 = alloca i32, align 4
  %9 = alloca i32, align 4
  %10 = alloca i32, align 4
  %11 = alloca i32, align 4
  store i32 %0, ptr %5, align 4, !tbaa !3
  store ptr %1, ptr %6, align 8, !tbaa !7
  store i32 %2, ptr %7, align 4, !tbaa !3
  call void @llvm.lifetime.start.p0(i64 4, ptr %8) #5
  store i32 1, ptr %8, align 4, !tbaa !3
  call void @llvm.lifetime.start.p0(i64 4, ptr %9) #5
  call void @llvm.lifetime.start.p0(i64 4, ptr %10) #5
  store i32 4, ptr %10, align 4, !tbaa !3
  %12 = load i32, ptr %5, align 4, !tbaa !3
  %13 = icmp eq i32 %12, -1
  br i1 %13, label %14, label %15

14:                                               ; preds = %3
  call void @ERR_new()
  call void @ERR_set_debug(ptr noundef @.str, i32 noundef 294, ptr noundef @__func__.BIO_listen)
  call void (i32, i32, ptr, ...) @ERR_set_error(i32 noundef 32, i32 noundef 135, ptr noundef null)
  store i32 0, ptr %4, align 4
  store i32 1, ptr %11, align 4
  br label %93

15:                                               ; preds = %3
  %16 = load i32, ptr %5, align 4, !tbaa !3
  %17 = call i32 @getsockopt(i32 noundef %16, i32 noundef 1, i32 noundef 3, ptr noundef %9, ptr noundef %10) #5
  %18 = icmp ne i32 %17, 0
  br i1 %18, label %23, label %19

19:                                               ; preds = %15
  %20 = load i32, ptr %10, align 4, !tbaa !3
  %21 = zext i32 %20 to i64
  %22 = icmp ne i64 %21, 4
  br i1 %22, label %23, label %26

23:                                               ; preds = %19, %15
  call void @ERR_new()
  call void @ERR_set_debug(ptr noundef @.str, i32 noundef 301, ptr noundef @__func__.BIO_listen)
  %24 = call ptr @__errno_location() #6
  %25 = load i32, ptr %24, align 4, !tbaa !3
  call void (i32, i32, ptr, ...) @ERR_set_error(i32 noundef 2, i32 noundef %25, ptr noundef @.str.5)
  call void @ERR_new()
  call void @ERR_set_debug(ptr noundef @.str, i32 noundef 303, ptr noundef @__func__.BIO_listen)
  call void (i32, i32, ptr, ...) @ERR_set_error(i32 noundef 32, i32 noundef 134, ptr noundef null)
  store i32 0, ptr %4, align 4
  store i32 1, ptr %11, align 4
  br label %93

26:                                               ; preds = %19
  %27 = load i32, ptr %5, align 4, !tbaa !3
  %28 = load i32, ptr %7, align 4, !tbaa !3
  %29 = and i32 %28, 8
  %30 = icmp ne i32 %29, 0
  %31 = zext i1 %30 to i32
  %32 = call i32 @BIO_socket_nbio(i32 noundef %27, i32 noundef %31)
  %33 = icmp ne i32 %32, 0
  br i1 %33, label %35, label %34

34:                                               ; preds = %26
  store i32 0, ptr %4, align 4
  store i32 1, ptr %11, align 4
  br label %93

35:                                               ; preds = %26
  %36 = load i32, ptr %7, align 4, !tbaa !3
  %37 = and i32 %36, 4
  %38 = icmp ne i32 %37, 0
  br i1 %38, label %39, label %47

39:                                               ; preds = %35
  %40 = load i32, ptr %5, align 4, !tbaa !3
  %41 = call i32 @setsockopt(i32 noundef %40, i32 noundef 1, i32 noundef 9, ptr noundef %8, i32 noundef 4) #5
  %42 = icmp ne i32 %41, 0
  br i1 %42, label %43, label %46

43:                                               ; preds = %39
  call void @ERR_new()
  call void @ERR_set_debug(ptr noundef @.str, i32 noundef 313, ptr noundef @__func__.BIO_listen)
  %44 = call ptr @__errno_location() #6
  %45 = load i32, ptr %44, align 4, !tbaa !3
  call void (i32, i32, ptr, ...) @ERR_set_error(i32 noundef 2, i32 noundef %45, ptr noundef @.str.2)
  call void @ERR_new()
  call void @ERR_set_debug(ptr noundef @.str, i32 noundef 315, ptr noundef @__func__.BIO_listen)
  call void (i32, i32, ptr, ...) @ERR_set_error(i32 noundef 32, i32 noundef 137, ptr noundef null)
  store i32 0, ptr %4, align 4
  store i32 1, ptr %11, align 4
  br label %93

46:                                               ; preds = %39
  br label %47

47:                                               ; preds = %46, %35
  %48 = load i32, ptr %7, align 4, !tbaa !3
  %49 = and i32 %48, 16
  %50 = icmp ne i32 %49, 0
  br i1 %50, label %51, label %59

51:                                               ; preds = %47
  %52 = load i32, ptr %5, align 4, !tbaa !3
  %53 = call i32 @setsockopt(i32 noundef %52, i32 noundef 6, i32 noundef 1, ptr noundef %8, i32 noundef 4) #5
  %54 = icmp ne i32 %53, 0
  br i1 %54, label %55, label %58

55:                                               ; preds = %51
  call void @ERR_new()
  call void @ERR_set_debug(ptr noundef @.str, i32 noundef 323, ptr noundef @__func__.BIO_listen)
  %56 = call ptr @__errno_location() #6
  %57 = load i32, ptr %56, align 4, !tbaa !3
  call void (i32, i32, ptr, ...) @ERR_set_error(i32 noundef 2, i32 noundef %57, ptr noundef @.str.2)
  call void @ERR_new()
  call void @ERR_set_debug(ptr noundef @.str, i32 noundef 325, ptr noundef @__func__.BIO_listen)
  call void (i32, i32, ptr, ...) @ERR_set_error(i32 noundef 32, i32 noundef 138, ptr noundef null)
  store i32 0, ptr %4, align 4
  store i32 1, ptr %11, align 4
  br label %93

58:                                               ; preds = %51
  br label %59

59:                                               ; preds = %58, %47
  %60 = load ptr, ptr %6, align 8, !tbaa !7
  %61 = call i32 @BIO_ADDR_family(ptr noundef %60)
  %62 = icmp eq i32 %61, 10
  br i1 %62, label %63, label %75

63:                                               ; preds = %59
  %64 = load i32, ptr %7, align 4, !tbaa !3
  %65 = and i32 %64, 2
  %66 = icmp ne i32 %65, 0
  %67 = select i1 %66, i32 1, i32 0
  store i32 %67, ptr %8, align 4, !tbaa !3
  %68 = load i32, ptr %5, align 4, !tbaa !3
  %69 = call i32 @setsockopt(i32 noundef %68, i32 noundef 41, i32 noundef 26, ptr noundef %8, i32 noundef 4) #5
  %70 = icmp ne i32 %69, 0
  br i1 %70, label %71, label %74

71:                                               ; preds = %63
  call void @ERR_new()
  call void @ERR_set_debug(ptr noundef @.str, i32 noundef 340, ptr noundef @__func__.BIO_listen)
  %72 = call ptr @__errno_location() #6
  %73 = load i32, ptr %72, align 4, !tbaa !3
  call void (i32, i32, ptr, ...) @ERR_set_error(i32 noundef 2, i32 noundef %73, ptr noundef @.str.2)
  call void @ERR_new()
  call void @ERR_set_debug(ptr noundef @.str, i32 noundef 342, ptr noundef @__func__.BIO_listen)
  call void (i32, i32, ptr, ...) @ERR_set_error(i32 noundef 32, i32 noundef 136, ptr noundef null)
  store i32 0, ptr %4, align 4
  store i32 1, ptr %11, align 4
  br label %93

74:                                               ; preds = %63
  br label %75

75:                                               ; preds = %74, %59
  %76 = load i32, ptr %5, align 4, !tbaa !3
  %77 = load ptr, ptr %6, align 8, !tbaa !7
  %78 = load i32, ptr %7, align 4, !tbaa !3
  %79 = call i32 @BIO_bind(i32 noundef %76, ptr noundef %77, i32 noundef %78)
  %80 = icmp ne i32 %79, 0
  br i1 %80, label %82, label %81

81:                                               ; preds = %75
  store i32 0, ptr %4, align 4
  store i32 1, ptr %11, align 4
  br label %93

82:                                               ; preds = %75
  %83 = load i32, ptr %9, align 4, !tbaa !3
  %84 = icmp ne i32 %83, 2
  br i1 %84, label %85, label %92

85:                                               ; preds = %82
  %86 = load i32, ptr %5, align 4, !tbaa !3
  %87 = call i32 @listen(i32 noundef %86, i32 noundef 4096) #5
  %88 = icmp eq i32 %87, -1
  br i1 %88, label %89, label %92

89:                                               ; preds = %85
  call void @ERR_new()
  call void @ERR_set_debug(ptr noundef @.str, i32 noundef 352, ptr noundef @__func__.BIO_listen)
  %90 = call ptr @__errno_location() #6
  %91 = load i32, ptr %90, align 4, !tbaa !3
  call void (i32, i32, ptr, ...) @ERR_set_error(i32 noundef 2, i32 noundef %91, ptr noundef @.str.6)
  call void @ERR_new()
  call void @ERR_set_debug(ptr noundef @.str, i32 noundef 354, ptr noundef @__func__.BIO_listen)
  call void (i32, i32, ptr, ...) @ERR_set_error(i32 noundef 32, i32 noundef 119, ptr noundef null)
  store i32 0, ptr %4, align 4
  store i32 1, ptr %11, align 4
  br label %93

92:                                               ; preds = %85, %82
  store i32 1, ptr %4, align 4
  store i32 1, ptr %11, align 4
  br label %93

93:                                               ; preds = %92, %89, %81, %71, %55, %43, %34, %23, %14
  call void @llvm.lifetime.end.p0(i64 4, ptr %10) #5
  call void @llvm.lifetime.end.p0(i64 4, ptr %9) #5
  call void @llvm.lifetime.end.p0(i64 4, ptr %8) #5
  %94 = load i32, ptr %4, align 4
  ret i32 %94
}