; Function Attrs: nounwind uwtable
define range(i32 0, 2) i32 @BIO_listen(i32 noundef %0, ptr noundef %1, i32 noundef %2) local_unnamed_addr #0 {
  %4 = alloca i32, align 4
  %5 = alloca i32, align 4
  %6 = alloca i32, align 4
  call void @llvm.lifetime.start.p0(i64 4, ptr nonnull %4) #5
  store i32 1, ptr %4, align 4, !tbaa !3
  call void @llvm.lifetime.start.p0(i64 4, ptr nonnull %5) #5
  call void @llvm.lifetime.start.p0(i64 4, ptr nonnull %6) #5
  store i32 4, ptr %6, align 4, !tbaa !3
  %7 = icmp eq i32 %0, -1
  br i1 %7, label %8, label %9

8:                                                ; preds = %3
  tail call void @ERR_new() #5
  tail call void @ERR_set_debug(ptr noundef nonnull @.str, i32 noundef 294, ptr noundef nonnull @__func__.BIO_listen) #5
  tail call void (i32, i32, ptr, ...) @ERR_set_error(i32 noundef 32, i32 noundef 135, ptr noundef null) #5
  br label %53

9:                                                ; preds = %3
  %10 = call i32 @getsockopt(i32 noundef %0, i32 noundef 1, i32 noundef 3, ptr noundef nonnull %5, ptr noundef nonnull %6) #5
  %11 = icmp ne i32 %10, 0
  %12 = load i32, ptr %6, align 4
  %13 = icmp ne i32 %12, 4
  %or.cond = select i1 %11, i1 true, i1 %13
  br i1 %or.cond, label %14, label %17

14:                                               ; preds = %9
  call void @ERR_new() #5
  call void @ERR_set_debug(ptr noundef nonnull @.str, i32 noundef 301, ptr noundef nonnull @__func__.BIO_listen) #5
  %15 = tail call ptr @__errno_location() #6
  %16 = load i32, ptr %15, align 4, !tbaa !3
  call void (i32, i32, ptr, ...) @ERR_set_error(i32 noundef 2, i32 noundef %16, ptr noundef nonnull @.str.5) #5
  call void @ERR_new() #5
  call void @ERR_set_debug(ptr noundef nonnull @.str, i32 noundef 303, ptr noundef nonnull @__func__.BIO_listen) #5
  call void (i32, i32, ptr, ...) @ERR_set_error(i32 noundef 32, i32 noundef 134, ptr noundef null) #5
  br label %53

17:                                               ; preds = %9
  %18 = lshr i32 %2, 3
  %.lobit = and i32 %18, 1
  %19 = call i32 @BIO_socket_nbio(i32 noundef %0, i32 noundef %.lobit) #5
  %.not = icmp eq i32 %19, 0
  br i1 %.not, label %53, label %20

20:                                               ; preds = %17
  %21 = and i32 %2, 4
  %.not18 = icmp eq i32 %21, 0
  br i1 %.not18, label %27, label %22

22:                                               ; preds = %20
  %23 = call i32 @setsockopt(i32 noundef %0, i32 noundef 1, i32 noundef 9, ptr noundef nonnull %4, i32 noundef 4) #5
  %.not19 = icmp eq i32 %23, 0
  br i1 %.not19, label %27, label %24

24:                                               ; preds = %22
  call void @ERR_new() #5
  call void @ERR_set_debug(ptr noundef nonnull @.str, i32 noundef 313, ptr noundef nonnull @__func__.BIO_listen) #5
  %25 = tail call ptr @__errno_location() #6
  %26 = load i32, ptr %25, align 4, !tbaa !3
  call void (i32, i32, ptr, ...) @ERR_set_error(i32 noundef 2, i32 noundef %26, ptr noundef nonnull @.str.2) #5
  call void @ERR_new() #5
  call void @ERR_set_debug(ptr noundef nonnull @.str, i32 noundef 315, ptr noundef nonnull @__func__.BIO_listen) #5
  call void (i32, i32, ptr, ...) @ERR_set_error(i32 noundef 32, i32 noundef 137, ptr noundef null) #5
  br label %53

27:                                               ; preds = %22, %20
  %28 = and i32 %2, 16
  %.not20 = icmp eq i32 %28, 0
  br i1 %.not20, label %34, label %29

29:                                               ; preds = %27
  %30 = call i32 @setsockopt(i32 noundef %0, i32 noundef 6, i32 noundef 1, ptr noundef nonnull %4, i32 noundef 4) #5
  %.not21 = icmp eq i32 %30, 0
  br i1 %.not21, label %34, label %31

31:                                               ; preds = %29
  call void @ERR_new() #5
  call void @ERR_set_debug(ptr noundef nonnull @.str, i32 noundef 323, ptr noundef nonnull @__func__.BIO_listen) #5
  %32 = tail call ptr @__errno_location() #6
  %33 = load i32, ptr %32, align 4, !tbaa !3
  call void (i32, i32, ptr, ...) @ERR_set_error(i32 noundef 2, i32 noundef %33, ptr noundef nonnull @.str.2) #5
  call void @ERR_new() #5
  call void @ERR_set_debug(ptr noundef nonnull @.str, i32 noundef 325, ptr noundef nonnull @__func__.BIO_listen) #5
  call void (i32, i32, ptr, ...) @ERR_set_error(i32 noundef 32, i32 noundef 138, ptr noundef null) #5
  br label %53

34:                                               ; preds = %29, %27
  %35 = call i32 @BIO_ADDR_family(ptr noundef %1) #5
  %36 = icmp eq i32 %35, 10
  br i1 %36, label %37, label %43

37:                                               ; preds = %34
  %38 = lshr i32 %2, 1
  %.lobit23 = and i32 %38, 1
  store i32 %.lobit23, ptr %4, align 4, !tbaa !3
  %39 = call i32 @setsockopt(i32 noundef %0, i32 noundef 41, i32 noundef 26, ptr noundef nonnull %4, i32 noundef 4) #5
  %.not24 = icmp eq i32 %39, 0
  br i1 %.not24, label %43, label %40

40:                                               ; preds = %37
  call void @ERR_new() #5
  call void @ERR_set_debug(ptr noundef nonnull @.str, i32 noundef 340, ptr noundef nonnull @__func__.BIO_listen) #5
  %41 = tail call ptr @__errno_location() #6
  %42 = load i32, ptr %41, align 4, !tbaa !3
  call void (i32, i32, ptr, ...) @ERR_set_error(i32 noundef 2, i32 noundef %42, ptr noundef nonnull @.str.2) #5
  call void @ERR_new() #5
  call void @ERR_set_debug(ptr noundef nonnull @.str, i32 noundef 342, ptr noundef nonnull @__func__.BIO_listen) #5
  call void (i32, i32, ptr, ...) @ERR_set_error(i32 noundef 32, i32 noundef 136, ptr noundef null) #5
  br label %53

43:                                               ; preds = %37, %34
  %44 = call i32 @BIO_bind(i32 noundef %0, ptr noundef %1, i32 noundef %2)
  %.not25 = icmp eq i32 %44, 0
  br i1 %.not25, label %53, label %45

45:                                               ; preds = %43
  %46 = load i32, ptr %5, align 4, !tbaa !3
  %.not26 = icmp eq i32 %46, 2
  br i1 %.not26, label %53, label %47

47:                                               ; preds = %45
  %48 = call i32 @listen(i32 noundef %0, i32 noundef 4096) #5
  %49 = icmp eq i32 %48, -1
  br i1 %49, label %50, label %53

50:                                               ; preds = %47
  call void @ERR_new() #5
  call void @ERR_set_debug(ptr noundef nonnull @.str, i32 noundef 352, ptr noundef nonnull @__func__.BIO_listen) #5
  %51 = tail call ptr @__errno_location() #6
  %52 = load i32, ptr %51, align 4, !tbaa !3
  call void (i32, i32, ptr, ...) @ERR_set_error(i32 noundef 2, i32 noundef %52, ptr noundef nonnull @.str.6) #5
  call void @ERR_new() #5
  call void @ERR_set_debug(ptr noundef nonnull @.str, i32 noundef 354, ptr noundef nonnull @__func__.BIO_listen) #5
  call void (i32, i32, ptr, ...) @ERR_set_error(i32 noundef 32, i32 noundef 119, ptr noundef null) #5
  br label %53

53:                                               ; preds = %45, %47, %43, %17, %50, %40, %31, %24, %14, %8
  %.0 = phi i32 [ 0, %8 ], [ 0, %14 ], [ 0, %24 ], [ 0, %31 ], [ 0, %40 ], [ 0, %50 ], [ 0, %17 ], [ 0, %43 ], [ 1, %47 ], [ 1, %45 ]
  call void @llvm.lifetime.end.p0(i64 4, ptr nonnull %6) #5
  call void @llvm.lifetime.end.p0(i64 4, ptr nonnull %5) #5
  call void @llvm.lifetime.end.p0(i64 4, ptr nonnull %4) #5
  ret i32 %.0
}